target datalayout = "e-m:e-p270:32:32-p271:32:32-p272:64:64-i64:64-i128:128-f80:128-n8:16:32:64-S128"
target triple = "x86_64-pc-linux-gnu"

%struct.dtoa_context = type { [8 x ptr], ptr }
%struct.Bigint = type { ptr, i32, i32, i32, i32, [1 x i32] }

; Function Attrs: nounwind uwtable
define internal void @Bfree(ptr noundef %0, ptr noundef %1) #0 {
  %3 = alloca ptr, align 8
  %4 = alloca ptr, align 8
  store ptr %0, ptr %3, align 8, !tbaa !4
  store ptr %1, ptr %4, align 8, !tbaa !11
  %5 = load ptr, ptr %4, align 8, !tbaa !11
  %6 = icmp ne ptr %5, null
  br i1 %6, label %7, label %34

7:                                                ; preds = %2
  %8 = load ptr, ptr %4, align 8, !tbaa !11
  %9 = getelementptr inbounds nuw %struct.Bigint, ptr %8, i32 0, i32 1
  %10 = load i32, ptr %9, align 8, !tbaa !22
  %11 = icmp sgt i32 %10, 7
  br i1 %11, label %12, label %14

12:                                               ; preds = %7
  %13 = load ptr, ptr %4, align 8, !tbaa !11
  call void @jv_mem_free(ptr noundef %13)
  br label %33

14:                                               ; preds = %7
  %15 = load ptr, ptr %3, align 8, !tbaa !4
  %16 = getelementptr inbounds nuw %struct.dtoa_context, ptr %15, i32 0, i32 0
  %17 = load ptr, ptr %4, align 8, !tbaa !11
  %18 = getelementptr inbounds nuw %struct.Bigint, ptr %17, i32 0, i32 1
  %19 = load i32, ptr %18, align 8, !tbaa !22
  %20 = sext i32 %19 to i64
  %21 = getelementptr inbounds [8 x ptr], ptr %16, i64 0, i64 %20
  %22 = load ptr, ptr %21, align 8, !tbaa !11
  %23 = load ptr, ptr %4, align 8, !tbaa !11
  %24 = getelementptr inbounds nuw %struct.Bigint, ptr %23, i32 0, i32 0
  store ptr %22, ptr %24, align 8, !tbaa !17
  %25 = load ptr, ptr %4, align 8, !tbaa !11
  %26 = load ptr, ptr %3, align 8, !tbaa !4
  %27 = getelementptr inbounds nuw %struct.dtoa_context, ptr %26, i32 0, i32 0
  %28 = load ptr, ptr %4, align 8, !tbaa !11
  %29 = getelementptr inbounds nuw %struct.Bigint, ptr %28, i32 0, i32 1
  %30 = load i32, ptr %29, align 8, !tbaa !22
  %31 = sext i32 %30 to i64
  %32 = getelementptr inbounds [8 x ptr], ptr %27, i64 0, i64 %31
  store ptr %25, ptr %32, align 8, !tbaa !11
  br label %33

33:                                               ; preds = %14, %12
  br label %34

34:                                               ; preds = %33, %2
  ret void
}

; Function Attrs: nounwind uwtable
define dso_local void @jvp_freedtoa(ptr noundef %0, ptr noundef %1) #0 {
  %3 = alloca ptr, align 8
  %4 = alloca ptr, align 8
  %5 = alloca ptr, align 8
  store ptr %0, ptr %3, align 8, !tbaa !4
  store ptr %1, ptr %4, align 8, !tbaa !23
  call void @llvm.lifetime.start.p0(i64 8, ptr %5) #6
  %6 = load ptr, ptr %4, align 8, !tbaa !23
  %7 = getelementptr inbounds i32, ptr %6, i64 -1
  store ptr %7, ptr %5, align 8, !tbaa !11
  %8 = load ptr, ptr %5, align 8, !tbaa !11
  %9 = load i32, ptr %8, align 4, !tbaa !9
  %10 = load ptr, ptr %5, align 8, !tbaa !11
  %11 = getelementptr inbounds nuw %struct.Bigint, ptr %10, i32 0, i32 1
  store i32 %9, ptr %11, align 8, !tbaa !22
  %12 = shl i32 1, %9
  %13 = load ptr, ptr %5, align 8, !tbaa !11
  %14 = getelementptr inbounds nuw %struct.Bigint, ptr %13, i32 0, i32 2
  store i32 %12, ptr %14, align 4, !tbaa !58
  %15 = load ptr, ptr %3, align 8, !tbaa !4
  %16 = load ptr, ptr %5, align 8, !tbaa !11
  call void @Bfree(ptr noundef %15, ptr noundef %16)
  call void @llvm.lifetime.end.p0(i64 8, ptr %5) #6
  ret void
}