; Function Attrs: nounwind uwtable
define dso_local void @jvp_freedtoa(ptr noundef captures(none) %0, ptr noundef initializes((4, 12)) %1) local_unnamed_addr #2 {
  %3 = getelementptr inbounds i8, ptr %1, i64 -4
  %4 = load i32, ptr %3, align 4, !tbaa !37
  %5 = getelementptr inbounds nuw i8, ptr %1, i64 4
  store i32 %4, ptr %5, align 8, !tbaa !13
  %6 = shl nuw i32 1, %4
  %7 = getelementptr inbounds nuw i8, ptr %1, i64 8
  store i32 %6, ptr %7, align 4, !tbaa !35
  %8 = icmp sgt i32 %4, 7
  br i1 %8, label %9, label %10

9:                                                ; preds = %2
  tail call void @jv_mem_free(ptr noundef nonnull %3) #11
  br label %Bfree.exit

10:                                               ; preds = %2
  %11 = sext i32 %4 to i64
  %12 = getelementptr inbounds [8 x ptr], ptr %0, i64 0, i64 %11
  %13 = load ptr, ptr %12, align 8, !tbaa !14
  store ptr %13, ptr %3, align 8, !tbaa !10
  store ptr %3, ptr %12, align 8, !tbaa !14
  br label %Bfree.exit

Bfree.exit:                                       ; preds = %9, %10
  ret void
}